; ModuleID = '22/1057.c'
source_filename = "22/1057.c"
target datalayout = "e-m:e-p270:32:32-p271:32:32-p272:64:64-i64:64-f80:128-n8:16:32:64-S128"
target triple = "x86_64-pc-linux-gnu"

@.str = private unnamed_addr constant [3 x i8] c"%d\00", align 1
@.str.1 = private unnamed_addr constant [3 x i8] c"No\00", align 1

; Function Attrs: noinline nounwind uwtable
define dso_local i32 @main() #0 {
  %1 = alloca i32, align 4
  %2 = alloca i32, align 4
  %3 = alloca i32, align 4
  %4 = alloca i32, align 4
  %5 = alloca [301 x i32], align 16
  %6 = alloca i32, align 4
  %7 = alloca i8, align 1
  store i32 0, i32* %1, align 4
  store i32 0, i32* %2, align 4
  %8 = bitcast [301 x i32]* %5 to i8*
  call void @llvm.memset.p0i8.i64(i8* align 16 %8, i8 0, i64 1204, i1 false)
  store i32 0, i32* %6, align 4
  %9 = getelementptr inbounds [301 x i32], [301 x i32]* %5, i64 0, i64 0
  store i32 0, i32* %9, align 16
  br label %10

10:                                               ; preds = %19, %0
  %11 = load i32, i32* %2, align 4
  %12 = add nsw i32 %11, 1
  store i32 %12, i32* %2, align 4
  %13 = load i32, i32* %2, align 4
  %14 = sext i32 %13 to i64
  %15 = getelementptr inbounds [301 x i32], [301 x i32]* %5, i64 0, i64 %14
  %16 = call i32 (i8*, ...) @__isoc99_scanf(i8* getelementptr inbounds ([3 x i8], [3 x i8]* @.str, i64 0, i64 0), i32* %15)
  %17 = call i32 @getchar()
  %18 = trunc i32 %17 to i8
  store i8 %18, i8* %7, align 1
  br label %19

19:                                               ; preds = %10
  %20 = load i8, i8* %7, align 1
  %21 = sext i8 %20 to i32
  %22 = icmp ne i32 %21, 10
  br i1 %22, label %10, label %23

23:                                               ; preds = %19
  store i32 1, i32* %3, align 4
  br label %24

24:                                               ; preds = %91, %23
  %25 = load i32, i32* %3, align 4
  %26 = load i32, i32* %2, align 4
  %27 = icmp slt i32 %25, %26
  br i1 %27, label %28, label %94

28:                                               ; preds = %24
  %29 = load i32, i32* %2, align 4
  store i32 %29, i32* %4, align 4
  br label %30

30:                                               ; preds = %87, %28
  %31 = load i32, i32* %4, align 4
  %32 = load i32, i32* %3, align 4
  %33 = icmp sgt i32 %31, %32
  br i1 %33, label %34, label %90

34:                                               ; preds = %30
  %35 = load i32, i32* %4, align 4
  %36 = sext i32 %35 to i64
  %37 = getelementptr inbounds [301 x i32], [301 x i32]* %5, i64 0, i64 %36
  %38 = load i32, i32* %37, align 4
  %39 = load i32, i32* %4, align 4
  %40 = sub nsw i32 %39, 1
  %41 = sext i32 %40 to i64
  %42 = getelementptr inbounds [301 x i32], [301 x i32]* %5, i64 0, i64 %41
  %43 = load i32, i32* %42, align 4
  %44 = icmp sgt i32 %38, %43
  br i1 %44, label %45, label %86

45:                                               ; preds = %34
  %46 = load i32, i32* %4, align 4
  %47 = sext i32 %46 to i64
  %48 = getelementptr inbounds [301 x i32], [301 x i32]* %5, i64 0, i64 %47
  %49 = load i32, i32* %48, align 4
  %50 = load i32, i32* %4, align 4
  %51 = sub nsw i32 %50, 1
  %52 = sext i32 %51 to i64
  %53 = getelementptr inbounds [301 x i32], [301 x i32]* %5, i64 0, i64 %52
  %54 = load i32, i32* %53, align 4
  %55 = add nsw i32 %49, %54
  %56 = load i32, i32* %4, align 4
  %57 = sext i32 %56 to i64
  %58 = getelementptr inbounds [301 x i32], [301 x i32]* %5, i64 0, i64 %57
  store i32 %55, i32* %58, align 4
  %59 = load i32, i32* %4, align 4
  %60 = sext i32 %59 to i64
  %61 = getelementptr inbounds [301 x i32], [301 x i32]* %5, i64 0, i64 %60
  %62 = load i32, i32* %61, align 4
  %63 = load i32, i32* %4, align 4
  %64 = sub nsw i32 %63, 1
  %65 = sext i32 %64 to i64
  %66 = getelementptr inbounds [301 x i32], [301 x i32]* %5, i64 0, i64 %65
  %67 = load i32, i32* %66, align 4
  %68 = sub nsw i32 %62, %67
  %69 = load i32, i32* %4, align 4
  %70 = sub nsw i32 %69, 1
  %71 = sext i32 %70 to i64
  %72 = getelementptr inbounds [301 x i32], [301 x i32]* %5, i64 0, i64 %71
  store i32 %68, i32* %72, align 4
  %73 = load i32, i32* %4, align 4
  %74 = sext i32 %73 to i64
  %75 = getelementptr inbounds [301 x i32], [301 x i32]* %5, i64 0, i64 %74
  %76 = load i32, i32* %75, align 4
  %77 = load i32, i32* %4, align 4
  %78 = sub nsw i32 %77, 1
  %79 = sext i32 %78 to i64
  %80 = getelementptr inbounds [301 x i32], [301 x i32]* %5, i64 0, i64 %79
  %81 = load i32, i32* %80, align 4
  %82 = sub nsw i32 %76, %81
  %83 = load i32, i32* %4, align 4
  %84 = sext i32 %83 to i64
  %85 = getelementptr inbounds [301 x i32], [301 x i32]* %5, i64 0, i64 %84
  store i32 %82, i32* %85, align 4
  br label %86

86:                                               ; preds = %45, %34
  br label %87

87:                                               ; preds = %86
  %88 = load i32, i32* %4, align 4
  %89 = add nsw i32 %88, -1
  store i32 %89, i32* %4, align 4
  br label %30

90:                                               ; preds = %30
  br label %91

91:                                               ; preds = %90
  %92 = load i32, i32* %3, align 4
  %93 = add nsw i32 %92, 1
  store i32 %93, i32* %3, align 4
  br label %24

94:                                               ; preds = %24
  %95 = load i32, i32* %2, align 4
  %96 = icmp eq i32 %95, 1
  br i1 %96, label %97, label %99

97:                                               ; preds = %94
  %98 = call i32 (i8*, ...) @printf(i8* getelementptr inbounds ([3 x i8], [3 x i8]* @.str.1, i64 0, i64 0))
  br label %125

99:                                               ; preds = %94
  store i32 2, i32* %3, align 4
  br label %100

100:                                              ; preds = %119, %99
  %101 = load i32, i32* %3, align 4
  %102 = load i32, i32* %2, align 4
  %103 = icmp sle i32 %101, %102
  br i1 %103, label %104, label %122

104:                                              ; preds = %100
  %105 = load i32, i32* %3, align 4
  %106 = sext i32 %105 to i64
  %107 = getelementptr inbounds [301 x i32], [301 x i32]* %5, i64 0, i64 %106
  %108 = load i32, i32* %107, align 4
  %109 = getelementptr inbounds [301 x i32], [301 x i32]* %5, i64 0, i64 1
  %110 = load i32, i32* %109, align 4
  %111 = icmp ne i32 %108, %110
  br i1 %111, label %112, label %118

112:                                              ; preds = %104
  %113 = load i32, i32* %3, align 4
  %114 = sext i32 %113 to i64
  %115 = getelementptr inbounds [301 x i32], [301 x i32]* %5, i64 0, i64 %114
  %116 = load i32, i32* %115, align 4
  %117 = call i32 (i8*, ...) @printf(i8* getelementptr inbounds ([3 x i8], [3 x i8]* @.str, i64 0, i64 0), i32 %116)
  br label %124

118:                                              ; preds = %104
  br label %119

119:                                              ; preds = %118
  %120 = load i32, i32* %3, align 4
  %121 = add nsw i32 %120, 1
  store i32 %121, i32* %3, align 4
  br label %100

122:                                              ; preds = %100
  %123 = call i32 (i8*, ...) @printf(i8* getelementptr inbounds ([3 x i8], [3 x i8]* @.str.1, i64 0, i64 0))
  br label %124

124:                                              ; preds = %122, %112
  store i32 0, i32* %1, align 4
  br label %125

125:                                              ; preds = %124, %97
  %126 = load i32, i32* %1, align 4
  ret i32 %126
}

; Function Attrs: argmemonly nounwind willreturn
declare void @llvm.memset.p0i8.i64(i8* nocapture writeonly, i8, i64, i1 immarg) #1

declare dso_local i32 @__isoc99_scanf(i8*, ...) #2

declare dso_local i32 @getchar() #2

declare dso_local i32 @printf(i8*, ...) #2


!llvm.module.flags = !{!0}
!llvm.ident = !{!1}

!0 = !{i32 1, !"wchar_size", i32 4}
!1 = !{!"clang version 10.0.0-4ubuntu1 "}
